target datalayout = "e-m:e-p270:32:32-p271:32:32-p272:64:64-i64:64-i128:128-f80:128-n8:16:32:64-S128"
target triple = "x86_64-pc-linux-gnu"

%struct.ImGuiShrinkWidthItem = type { i32, float, float }

; Function Attrs: mustprogress nounwind uwtable
define internal noundef i32 @_ZL23ShrinkWidthItemComparerPKvS0_(ptr noundef %0, ptr noundef %1) #4 {
  %3 = alloca i32, align 4
  %4 = alloca ptr, align 8
  %5 = alloca ptr, align 8
  %6 = alloca ptr, align 8
  %7 = alloca ptr, align 8
  %8 = alloca i32, align 4
  %9 = alloca i32, align 4
  store ptr %0, ptr %4, align 8, !tbaa !255
  store ptr %1, ptr %5, align 8, !tbaa !255
  call void @llvm.lifetime.start.p0(i64 8, ptr %6) #17
  %10 = load ptr, ptr %4, align 8, !tbaa !255
  store ptr %10, ptr %6, align 8, !tbaa !323
  call void @llvm.lifetime.start.p0(i64 8, ptr %7) #17
  %11 = load ptr, ptr %5, align 8, !tbaa !255
  store ptr %11, ptr %7, align 8, !tbaa !323
  call void @llvm.lifetime.start.p0(i64 4, ptr %8) #17
  %12 = load ptr, ptr %7, align 8, !tbaa !323
  %13 = getelementptr inbounds nuw %struct.ImGuiShrinkWidthItem, ptr %12, i32 0, i32 1
  %14 = load float, ptr %13, align 4, !tbaa !324
  %15 = load ptr, ptr %6, align 8, !tbaa !323
  %16 = getelementptr inbounds nuw %struct.ImGuiShrinkWidthItem, ptr %15, i32 0, i32 1
  %17 = load float, ptr %16, align 4, !tbaa !324
  %18 = fsub float %14, %17
  %19 = fptosi float %18 to i32
  store i32 %19, ptr %8, align 4, !tbaa !9
  %20 = load i32, ptr %8, align 4, !tbaa !9
  %21 = icmp ne i32 %20, 0
  br i1 %21, label %22, label %24

22:                                               ; preds = %2
  %23 = load i32, ptr %8, align 4, !tbaa !9
  store i32 %23, ptr %3, align 4
  store i32 1, ptr %9, align 4
  br label %25

24:                                               ; preds = %2
  store i32 0, ptr %9, align 4
  br label %25

25:                                               ; preds = %24, %22
  call void @llvm.lifetime.end.p0(i64 4, ptr %8) #17
  %26 = load i32, ptr %9, align 4
  switch i32 %26, label %35 [
    i32 0, label %27
  ]

27:                                               ; preds = %25
  %28 = load ptr, ptr %7, align 8, !tbaa !323
  %29 = getelementptr inbounds nuw %struct.ImGuiShrinkWidthItem, ptr %28, i32 0, i32 0
  %30 = load i32, ptr %29, align 4, !tbaa !333
  %31 = load ptr, ptr %6, align 8, !tbaa !323
  %32 = getelementptr inbounds nuw %struct.ImGuiShrinkWidthItem, ptr %31, i32 0, i32 0
  %33 = load i32, ptr %32, align 4, !tbaa !333
  %34 = sub nsw i32 %30, %33
  store i32 %34, ptr %3, align 4
  store i32 1, ptr %9, align 4
  br label %35

35:                                               ; preds = %27, %25
  call void @llvm.lifetime.end.p0(i64 8, ptr %7) #17
  call void @llvm.lifetime.end.p0(i64 8, ptr %6) #17
  %36 = load i32, ptr %3, align 4
  ret i32 %36
}