; Function Attrs: mustprogress nofree norecurse nosync nounwind willreturn memory(argmem: read) uwtable
define internal noundef i32 @_ZL23ShrinkWidthItemComparerPKvS0_(ptr noundef readonly captures(none) %0, ptr noundef readonly captures(none) %1) #11 {
  %3 = getelementptr inbounds nuw i8, ptr %1, i64 4
  %4 = load float, ptr %3, align 4, !tbaa !293
  %5 = getelementptr inbounds nuw i8, ptr %0, i64 4
  %6 = load float, ptr %5, align 4, !tbaa !293
  %7 = fsub float %4, %6
  %8 = fptosi float %7 to i32
  %.not = icmp eq i32 %8, 0
  br i1 %.not, label %9, label %13

9:                                                ; preds = %2
  %10 = load i32, ptr %1, align 4, !tbaa !301
  %11 = load i32, ptr %0, align 4, !tbaa !301
  %12 = sub nsw i32 %10, %11
  br label %13

13:                                               ; preds = %2, %9
  %.1 = phi i32 [ %12, %9 ], [ %8, %2 ]
  ret i32 %.1
}